target datalayout = "e-m:e-p270:32:32-p271:32:32-p272:64:64-i64:64-i128:128-f80:128-n8:16:32:64-S128"
target triple = "x86_64-pc-linux-gnu"

%struct.PyModuleDef = type { %struct.PyModuleDef_Base, ptr, ptr, i64, ptr, ptr, ptr, ptr, ptr }
%struct.PyModuleDef_Base = type { %struct._object, ptr, i64, ptr }
%struct._object = type { %union.anon, ptr }
%union.anon = type { i64 }

@_fuzzmodule = internal global %struct.PyModuleDef { %struct.PyModuleDef_Base { %struct._object { %union.anon { i64 552977039360 }, ptr null }, ptr null, i64 0, ptr null }, ptr @.str, ptr null, i64 0, ptr @module_methods, ptr @module_slots, ptr null, ptr null, ptr null }, align 8
@.str = private unnamed_addr constant [6 x i8] c"_fuzz\00", align 1
@.str.1 = private unnamed_addr constant [4 x i8] c"run\00", align 1
@.str.2 = private unnamed_addr constant [1 x i8] zeroinitializer, align 1
@module_methods = internal global [2 x { ptr, ptr, i32, [4 x i8], ptr }] [{ ptr, ptr, i32, [4 x i8], ptr } { ptr @.str.1, ptr @_fuzz_run, i32 1, [4 x i8] zeroinitializer, ptr @.str.2 }, { ptr, ptr, i32, [4 x i8], ptr } zeroinitializer], align 16
@.str.4 = private unnamed_addr constant [3 x i8] c"s#\00", align 1
@PyExc_RuntimeError = external global ptr, align 8
@.str.5 = private unnamed_addr constant [36 x i8] c"Nonzero return code from fuzzer: %d\00", align 1
@_Py_NoneStruct = external global %struct._object, align 8
@module_slots = internal global [2 x { i32, [4 x i8], ptr }] [{ i32, [4 x i8], ptr } { i32 4, [4 x i8] zeroinitializer, ptr inttoptr (i64 1 to ptr) }, { i32, [4 x i8], ptr } zeroinitializer], align 16

; Function Attrs: nounwind uwtable
define ptr @PyInit__xxtestfuzz() #0 {
  %1 = call ptr @PyModuleDef_Init(ptr noundef @_fuzzmodule)
  ret ptr %1
}

declare ptr @PyModuleDef_Init(ptr noundef) #1

; Function Attrs: nounwind uwtable
define internal ptr @_fuzz_run(ptr noundef %0, ptr noundef %1) #0 {
  %3 = alloca ptr, align 8
  %4 = alloca ptr, align 8
  %5 = alloca ptr, align 8
  %6 = alloca ptr, align 8
  %7 = alloca i64, align 8
  %8 = alloca i32, align 4
  %9 = alloca i32, align 4
  store ptr %0, ptr %4, align 8, !tbaa !3
  store ptr %1, ptr %5, align 8, !tbaa !3
  call void @llvm.lifetime.start.p0(i64 8, ptr %6) #3
  call void @llvm.lifetime.start.p0(i64 8, ptr %7) #3
  %10 = load ptr, ptr %5, align 8, !tbaa !3
  %11 = call i32 (ptr, ptr, ...) @PyArg_ParseTuple(ptr noundef %10, ptr noundef @.str.4, ptr noundef %6, ptr noundef %7)
  %12 = icmp ne i32 %11, 0
  br i1 %12, label %14, label %13

13:                                               ; preds = %2
  store ptr null, ptr %3, align 8
  store i32 1, ptr %8, align 4
  br label %30

14:                                               ; preds = %2
  call void @llvm.lifetime.start.p0(i64 4, ptr %9) #3
  %15 = load ptr, ptr %6, align 8, !tbaa !8
  %16 = load i64, ptr %7, align 8, !tbaa !10
  %17 = call i32 @LLVMFuzzerTestOneInput(ptr noundef %15, i64 noundef %16)
  store i32 %17, ptr %9, align 4, !tbaa !12
  %18 = call ptr @PyErr_Occurred()
  %19 = icmp ne ptr %18, null
  br i1 %19, label %20, label %21

20:                                               ; preds = %14
  store ptr null, ptr %3, align 8
  store i32 1, ptr %8, align 4
  br label %29

21:                                               ; preds = %14
  %22 = load i32, ptr %9, align 4, !tbaa !12
  %23 = icmp ne i32 %22, 0
  br i1 %23, label %24, label %28

24:                                               ; preds = %21
  %25 = load ptr, ptr @PyExc_RuntimeError, align 8, !tbaa !3
  %26 = load i32, ptr %9, align 4, !tbaa !12
  %27 = call ptr (ptr, ptr, ...) @PyErr_Format(ptr noundef %25, ptr noundef @.str.5, i32 noundef %26)
  store ptr null, ptr %3, align 8
  store i32 1, ptr %8, align 4
  br label %29

28:                                               ; preds = %21
  store ptr @_Py_NoneStruct, ptr %3, align 8
  store i32 1, ptr %8, align 4
  br label %29

29:                                               ; preds = %28, %24, %20
  call void @llvm.lifetime.end.p0(i64 4, ptr %9) #3
  br label %30

30:                                               ; preds = %29, %13
  call void @llvm.lifetime.end.p0(i64 8, ptr %7) #3
  call void @llvm.lifetime.end.p0(i64 8, ptr %6) #3
  %31 = load ptr, ptr %3, align 8
  ret ptr %31
}

; Function Attrs: nocallback nofree nosync nounwind willreturn memory(argmem: readwrite)
declare void @llvm.lifetime.start.p0(i64 immarg, ptr captures(none)) #2

declare i32 @PyArg_ParseTuple(ptr noundef, ptr noundef, ...) #1

declare i32 @LLVMFuzzerTestOneInput(ptr noundef, i64 noundef) #1

declare ptr @PyErr_Occurred() #1

declare ptr @PyErr_Format(ptr noundef, ptr noundef, ...) #1

; Function Attrs: nocallback nofree nosync nounwind willreturn memory(argmem: readwrite)
declare void @llvm.lifetime.end.p0(i64 immarg, ptr captures(none)) #2


!llvm.module.flags = !{!0, !1, !2}

!0 = !{i32 1, !"wchar_size", i32 4}
!1 = !{i32 8, !"PIC Level", i32 2}
!2 = !{i32 7, !"uwtable", i32 2}
!3 = !{!4, !4, i64 0}
!4 = !{!"p1 _ZTS7_object", !5, i64 0}
!5 = !{!"any pointer", !6, i64 0}
!6 = !{!"omnipotent char", !7, i64 0}
!7 = !{!"Simple C/C++ TBAA"}
!8 = !{!9, !9, i64 0}
!9 = !{!"p1 omnipotent char", !5, i64 0}
!10 = !{!11, !11, i64 0}
!11 = !{!"long", !6, i64 0}
!12 = !{!13, !13, i64 0}
!13 = !{!"int", !6, i64 0}
