; ModuleID = 'bench/cpython/original/_xxtestfuzz.ll'
source_filename = "bench/cpython/original/_xxtestfuzz.ll"
target datalayout = "e-m:e-p270:32:32-p271:32:32-p272:64:64-i64:64-i128:128-f80:128-n8:16:32:64-S128"
target triple = "x86_64-pc-linux-gnu"

%struct.PyModuleDef = type { %struct.PyModuleDef_Base, ptr, ptr, i64, ptr, ptr, ptr, ptr, ptr }
%struct.PyModuleDef_Base = type { %struct._object, ptr, i64, ptr }
%struct._object = type { %union.anon, ptr }
%union.anon = type { i64 }

@_fuzzmodule = internal global %struct.PyModuleDef { %struct.PyModuleDef_Base { %struct._object { %union.anon { i64 552977039360 }, ptr null }, ptr null, i64 0, ptr null }, ptr @.str, ptr null, i64 0, ptr @module_methods, ptr @module_slots, ptr null, ptr null, ptr null }, align 8
@.str = private unnamed_addr constant [6 x i8] c"_fuzz\00", align 1
@.str.1 = private unnamed_addr constant [4 x i8] c"run\00", align 1
@.str.2 = private unnamed_addr constant [1 x i8] zeroinitializer, align 1
@module_methods = internal global [2 x { ptr, ptr, i32, [4 x i8], ptr }] [{ ptr, ptr, i32, [4 x i8], ptr } { ptr @.str.1, ptr @_fuzz_run, i32 1, [4 x i8] zeroinitializer, ptr @.str.2 }, { ptr, ptr, i32, [4 x i8], ptr } zeroinitializer], align 16
@.str.4 = private unnamed_addr constant [3 x i8] c"s#\00", align 1
@PyExc_RuntimeError = external local_unnamed_addr global ptr, align 8
@.str.5 = private unnamed_addr constant [36 x i8] c"Nonzero return code from fuzzer: %d\00", align 1
@_Py_NoneStruct = external global %struct._object, align 8
@module_slots = internal global [2 x { i32, [4 x i8], ptr }] [{ i32, [4 x i8], ptr } { i32 4, [4 x i8] zeroinitializer, ptr inttoptr (i64 1 to ptr) }, { i32, [4 x i8], ptr } zeroinitializer], align 16

; Function Attrs: nounwind uwtable
define ptr @PyInit__xxtestfuzz() local_unnamed_addr #0 {
  %1 = tail call ptr @PyModuleDef_Init(ptr noundef nonnull @_fuzzmodule) #3
  ret ptr %1
}

declare ptr @PyModuleDef_Init(ptr noundef) local_unnamed_addr #1

; Function Attrs: nounwind uwtable
define internal noundef ptr @_fuzz_run(ptr readnone captures(none) %0, ptr noundef %1) #0 {
  %3 = alloca ptr, align 8
  %4 = alloca i64, align 8
  call void @llvm.lifetime.start.p0(i64 8, ptr nonnull %3) #3
  call void @llvm.lifetime.start.p0(i64 8, ptr nonnull %4) #3
  %5 = call i32 (ptr, ptr, ...) @PyArg_ParseTuple(ptr noundef %1, ptr noundef nonnull @.str.4, ptr noundef nonnull %3, ptr noundef nonnull %4) #3
  %.not = icmp eq i32 %5, 0
  br i1 %.not, label %15, label %6

6:                                                ; preds = %2
  %7 = load ptr, ptr %3, align 8, !tbaa !3
  %8 = load i64, ptr %4, align 8, !tbaa !8
  %9 = call i32 @LLVMFuzzerTestOneInput(ptr noundef %7, i64 noundef %8) #3
  %10 = call ptr @PyErr_Occurred() #3
  %.not4 = icmp eq ptr %10, null
  br i1 %.not4, label %11, label %15

11:                                               ; preds = %6
  %.not5 = icmp eq i32 %9, 0
  br i1 %.not5, label %15, label %12

12:                                               ; preds = %11
  %13 = load ptr, ptr @PyExc_RuntimeError, align 8, !tbaa !10
  %14 = call ptr (ptr, ptr, ...) @PyErr_Format(ptr noundef %13, ptr noundef nonnull @.str.5, i32 noundef %9) #3
  br label %15

15:                                               ; preds = %12, %6, %11, %2
  %.0 = phi ptr [ null, %2 ], [ null, %12 ], [ null, %6 ], [ @_Py_NoneStruct, %11 ]
  call void @llvm.lifetime.end.p0(i64 8, ptr nonnull %4) #3
  call void @llvm.lifetime.end.p0(i64 8, ptr nonnull %3) #3
  ret ptr %.0
}

; Function Attrs: mustprogress nocallback nofree nosync nounwind willreturn memory(argmem: readwrite)
declare void @llvm.lifetime.start.p0(i64 immarg, ptr captures(none)) #2

declare i32 @PyArg_ParseTuple(ptr noundef, ptr noundef, ...) local_unnamed_addr #1

declare i32 @LLVMFuzzerTestOneInput(ptr noundef, i64 noundef) local_unnamed_addr #1

declare ptr @PyErr_Occurred() local_unnamed_addr #1

declare ptr @PyErr_Format(ptr noundef, ptr noundef, ...) local_unnamed_addr #1

; Function Attrs: mustprogress nocallback nofree nosync nounwind willreturn memory(argmem: readwrite)
declare void @llvm.lifetime.end.p0(i64 immarg, ptr captures(none)) #2


!llvm.module.flags = !{!0, !1, !2}

!0 = !{i32 1, !"wchar_size", i32 4}
!1 = !{i32 8, !"PIC Level", i32 2}
!2 = !{i32 7, !"uwtable", i32 2}
!3 = !{!4, !4, i64 0}
!4 = !{!"p1 omnipotent char", !5, i64 0}
!5 = !{!"any pointer", !6, i64 0}
!6 = !{!"omnipotent char", !7, i64 0}
!7 = !{!"Simple C/C++ TBAA"}
!8 = !{!9, !9, i64 0}
!9 = !{!"long", !6, i64 0}
!10 = !{!11, !11, i64 0}
!11 = !{!"p1 _ZTS7_object", !5, i64 0}
